; Function Attrs: mustprogress nofree norecurse nosync nounwind willreturn memory(argmem: read) uwtable
define dso_local noundef zeroext i1 @_ZN4Luau22isReferenceCountedTypeEPKNS_4TypeE(ptr noundef readonly %0) local_unnamed_addr #4 {
  %.not.i.i = icmp eq ptr %0, null
  br i1 %.not.i.i, label %_ZN4Luau3getINS_8FreeTypeEEEPKT_PKNS_4TypeE.exit, label %2

2:                                                ; preds = %1
  %3 = load i32, ptr %0, align 8, !tbaa !15
  %4 = icmp ult i32 %3, 8
  br i1 %4, label %switch.lookup, label %_ZN4Luau3getINS_8FreeTypeEEEPKT_PKNS_4TypeE.exit

switch.lookup:                                    ; preds = %2
  %switch.cast = trunc nuw i32 %3 to i8
  %switch.downshift = lshr i8 -60, %switch.cast
  %switch.masked = trunc i8 %switch.downshift to i1
  br label %_ZN4Luau3getINS_8FreeTypeEEEPKT_PKNS_4TypeE.exit

_ZN4Luau3getINS_8FreeTypeEEEPKT_PKNS_4TypeE.exit: ; preds = %2, %switch.lookup, %1
  %5 = phi i1 [ false, %1 ], [ %switch.masked, %switch.lookup ], [ false, %2 ]
  ret i1 %5
}